target datalayout = "e-m:e-p270:32:32-p271:32:32-p272:64:64-i64:64-i128:128-f80:128-n8:16:32:64-S128"
target triple = "x86_64-pc-linux-gnu"

%"class.std::basic_string_view" = type { i64, ptr }
%"class.absl::CordzSamplingIntervalHelper" = type { i32 }
%"class.absl::Cord" = type { %"class.absl::Cord::InlineRep" }
%"class.absl::Cord::InlineRep" = type { %"class.absl::cord_internal::InlineData" }
%"class.absl::cord_internal::InlineData" = type { %"struct.absl::cord_internal::InlineData::Rep" }
%"struct.absl::cord_internal::InlineData::Rep" = type { %union.anon.84 }
%union.anon.84 = type { %"struct.absl::cord_internal::InlineData::Rep::AsTree" }
%"struct.absl::cord_internal::InlineData::Rep::AsTree" = type { i64, ptr }
%"class.testing::internal::TestFactoryBase" = type { ptr }
%"class.testing::TestWithParam" = type { %"class.testing::Test", %"class.testing::WithParamInterface" }
%"class.testing::Test" = type { ptr, %"class.std::unique_ptr.76" }
%"class.std::unique_ptr.76" = type { %"struct.std::__uniq_ptr_data.77" }
%"struct.std::__uniq_ptr_data.77" = type { %"class.std::__uniq_ptr_impl.78" }
%"class.std::__uniq_ptr_impl.78" = type { %"class.std::tuple.79" }
%"class.std::tuple.79" = type { %"struct.std::_Tuple_impl.80" }
%"struct.std::_Tuple_impl.80" = type { %"struct.std::_Head_base.83" }
%"struct.std::_Head_base.83" = type { ptr }
%"class.testing::WithParamInterface" = type { ptr }
%"class.absl::(anonymous namespace)::CordzUpdateTest" = type { %"class.testing::TestWithParam", %"class.absl::CordzSamplingIntervalHelper", %"class.absl::Cord" }
%"class.testing::internal::ParameterizedTestFactory.246" = type <{ %"class.testing::internal::TestFactoryBase", i32, [4 x i8] }>

@_ZN7testing18WithParamInterfaceIN4absl12TestCordSizeEE10parameter_E = linkonce_odr dso_local global ptr null, comdat, align 8

; Function Attrs: mustprogress nounwind uwtable
define linkonce_odr dso_local void @_ZN7testing18WithParamInterfaceIN4absl12TestCordSizeEED2Ev(ptr noundef nonnull align 8 dereferenceable(8) %0) unnamed_addr #6 comdat align 2 {
  %2 = alloca ptr, align 8
  store ptr %0, ptr %2, align 8, !tbaa !651
  ret void
}

; Function Attrs: inlinehint mustprogress nounwind uwtable
define linkonce_odr dso_local void @_ZN7testing18WithParamInterfaceIN4absl12TestCordSizeEEC2Ev(ptr noundef nonnull align 8 dereferenceable(8) %0) unnamed_addr #7 comdat align 2 {
  %2 = alloca ptr, align 8
  store ptr %0, ptr %2, align 8, !tbaa !651
  %3 = load ptr, ptr %2, align 8
  store ptr getelementptr inbounds inrange(-16, 16) ({ [4 x ptr] }, ptr @_ZTVN7testing18WithParamInterfaceIN4absl12TestCordSizeEEE, i32 0, i32 0, i32 2), ptr %3, align 8, !tbaa !25
  ret void
}

; Function Attrs: inlinehint mustprogress nounwind uwtable
define linkonce_odr dso_local void @_ZN7testing13TestWithParamIN4absl12TestCordSizeEED2Ev(ptr noundef nonnull align 8 dereferenceable(24) %0) unnamed_addr #7 comdat align 2 {
  %2 = alloca ptr, align 8
  store ptr %0, ptr %2, align 8, !tbaa !649
  %3 = load ptr, ptr %2, align 8
  %4 = getelementptr inbounds i8, ptr %3, i64 16
  call void @_ZN7testing18WithParamInterfaceIN4absl12TestCordSizeEED2Ev(ptr noundef nonnull align 8 dereferenceable(8) %4) #3
  call void @_ZN7testing4TestD2Ev(ptr noundef nonnull align 8 dereferenceable(16) %3) #3
  ret void
}

; Function Attrs: inlinehint mustprogress uwtable
define linkonce_odr dso_local void @_ZN4absl4CordC2ESt17basic_string_viewIcSt11char_traitsIcEE(ptr noundef nonnull align 8 dereferenceable(16) %0, i64 %1, ptr %2) unnamed_addr #9 comdat align 2 {
  %4 = alloca %"class.std::basic_string_view", align 8
  %5 = alloca ptr, align 8
  %6 = alloca %"class.std::basic_string_view", align 8
  %7 = getelementptr inbounds nuw { i64, ptr }, ptr %4, i32 0, i32 0
  store i64 %1, ptr %7, align 8
  %8 = getelementptr inbounds nuw { i64, ptr }, ptr %4, i32 0, i32 1
  store ptr %2, ptr %8, align 8
  store ptr %0, ptr %5, align 8, !tbaa !299
  %9 = load ptr, ptr %5, align 8
  call void @llvm.memcpy.p0.p0.i64(ptr align 8 %6, ptr align 8 %4, i64 16, i1 false), !tbaa.struct !231
  %10 = getelementptr inbounds nuw { i64, ptr }, ptr %6, i32 0, i32 0
  %11 = load i64, ptr %10, align 8
  %12 = getelementptr inbounds nuw { i64, ptr }, ptr %6, i32 0, i32 1
  %13 = load ptr, ptr %12, align 8
  call void @_ZN4absl4CordC2ESt17basic_string_viewIcSt11char_traitsIcEENS_13cord_internal18CordzUpdateTracker16MethodIdentifierE(ptr noundef nonnull align 8 dereferenceable(16) %9, i64 %11, ptr %13, i32 noundef 9)
  ret void
}

; Function Attrs: mustprogress uwtable
define linkonce_odr dso_local void @_ZN4absl27CordzSamplingIntervalHelperC2Ei(ptr noundef nonnull align 4 dereferenceable(4) %0, i32 noundef %1) unnamed_addr #4 comdat align 2 {
  %3 = alloca ptr, align 8
  %4 = alloca i32, align 4
  store ptr %0, ptr %3, align 8, !tbaa !295
  store i32 %1, ptr %4, align 4, !tbaa !4
  %5 = load ptr, ptr %3, align 8
  %6 = getelementptr inbounds nuw %"class.absl::CordzSamplingIntervalHelper", ptr %5, i32 0, i32 0
  %7 = call noundef i32 @_ZN4absl13cord_internal23get_cordz_mean_intervalEv()
  store i32 %7, ptr %6, align 4, !tbaa !297
  %8 = load i32, ptr %4, align 4, !tbaa !4
  call void @_ZN4absl13cord_internal23set_cordz_mean_intervalEi(i32 noundef %8)
  %9 = load i32, ptr %4, align 4, !tbaa !4
  %10 = sext i32 %9 to i64
  call void @_ZN4absl13cord_internal33cordz_set_next_sample_for_testingEl(i64 noundef %10)
  ret void
}

; Function Attrs: inlinehint mustprogress uwtable
define linkonce_odr dso_local void @_ZN7testing13TestWithParamIN4absl12TestCordSizeEEC2Ev(ptr noundef nonnull align 8 dereferenceable(24) %0) unnamed_addr #9 comdat align 2 {
  %2 = alloca ptr, align 8
  store ptr %0, ptr %2, align 8, !tbaa !649
  %3 = load ptr, ptr %2, align 8
  call void @_ZN7testing4TestC2Ev(ptr noundef nonnull align 8 dereferenceable(16) %3)
  %4 = getelementptr inbounds i8, ptr %3, i64 16
  call void @_ZN7testing18WithParamInterfaceIN4absl12TestCordSizeEEC2Ev(ptr noundef nonnull align 8 dereferenceable(8) %4) #3
  store ptr getelementptr inbounds inrange(-16, 48) ({ [8 x ptr], [4 x ptr] }, ptr @_ZTVN7testing13TestWithParamIN4absl12TestCordSizeEEE, i32 0, i32 0, i32 2), ptr %3, align 8, !tbaa !25
  %5 = getelementptr inbounds i8, ptr %3, i64 16
  store ptr getelementptr inbounds inrange(-16, 16) ({ [8 x ptr], [4 x ptr] }, ptr @_ZTVN7testing13TestWithParamIN4absl12TestCordSizeEEE, i32 0, i32 1, i32 2), ptr %5, align 8, !tbaa !25
  ret void
}

; Function Attrs: inlinehint mustprogress uwtable
define internal void @_ZN4absl12_GLOBAL__N_115CordzUpdateTestC2Ev(ptr noundef nonnull align 8 dereferenceable(48) %0) unnamed_addr #9 align 2 personality ptr @__gxx_personality_v0 {
  %2 = alloca ptr, align 8
  %3 = alloca ptr, align 8
  %4 = alloca i32, align 4
  %5 = alloca %"class.std::basic_string_view", align 8
  store ptr %0, ptr %2, align 8, !tbaa !825
  %6 = load ptr, ptr %2, align 8
  call void @_ZN7testing13TestWithParamIN4absl12TestCordSizeEEC2Ev(ptr noundef nonnull align 8 dereferenceable(24) %6)
  store ptr getelementptr inbounds inrange(-16, 48) ({ [8 x ptr], [4 x ptr] }, ptr @_ZTVN4absl12_GLOBAL__N_115CordzUpdateTestE, i32 0, i32 0, i32 2), ptr %6, align 8, !tbaa !25
  %7 = getelementptr inbounds i8, ptr %6, i64 16
  store ptr getelementptr inbounds inrange(-16, 16) ({ [8 x ptr], [4 x ptr] }, ptr @_ZTVN4absl12_GLOBAL__N_115CordzUpdateTestE, i32 0, i32 1, i32 2), ptr %7, align 8, !tbaa !25
  %8 = getelementptr inbounds nuw %"class.absl::(anonymous namespace)::CordzUpdateTest", ptr %6, i32 0, i32 1
  invoke void @_ZN4absl27CordzSamplingIntervalHelperC2Ei(ptr noundef nonnull align 4 dereferenceable(4) %8, i32 noundef 1)
          to label %9 unwind label %25

9:                                                ; preds = %1
  %10 = getelementptr inbounds nuw %"class.absl::(anonymous namespace)::CordzUpdateTest", ptr %6, i32 0, i32 2
  %11 = invoke noundef nonnull align 4 dereferenceable(4) ptr @_ZN7testing18WithParamInterfaceIN4absl12TestCordSizeEE8GetParamEv()
          to label %12 unwind label %29

12:                                               ; preds = %9
  %13 = load i32, ptr %11, align 4, !tbaa !37
  %14 = invoke { i64, ptr } @_ZN4absl12_GLOBAL__N_110MakeStringENS_12TestCordSizeE(i32 noundef %13)
          to label %15 unwind label %29

15:                                               ; preds = %12
  %16 = getelementptr inbounds nuw { i64, ptr }, ptr %5, i32 0, i32 0
  %17 = extractvalue { i64, ptr } %14, 0
  store i64 %17, ptr %16, align 8
  %18 = getelementptr inbounds nuw { i64, ptr }, ptr %5, i32 0, i32 1
  %19 = extractvalue { i64, ptr } %14, 1
  store ptr %19, ptr %18, align 8
  %20 = getelementptr inbounds nuw { i64, ptr }, ptr %5, i32 0, i32 0
  %21 = load i64, ptr %20, align 8
  %22 = getelementptr inbounds nuw { i64, ptr }, ptr %5, i32 0, i32 1
  %23 = load ptr, ptr %22, align 8
  invoke void @_ZN4absl4CordC2ESt17basic_string_viewIcSt11char_traitsIcEE(ptr noundef nonnull align 8 dereferenceable(16) %10, i64 %21, ptr %23)
          to label %24 unwind label %29

24:                                               ; preds = %15
  ret void

25:                                               ; preds = %1
  %26 = landingpad { ptr, i32 }
          cleanup
  %27 = extractvalue { ptr, i32 } %26, 0
  store ptr %27, ptr %3, align 8
  %28 = extractvalue { ptr, i32 } %26, 1
  store i32 %28, ptr %4, align 4
  br label %33

29:                                               ; preds = %15, %12, %9
  %30 = landingpad { ptr, i32 }
          cleanup
  %31 = extractvalue { ptr, i32 } %30, 0
  store ptr %31, ptr %3, align 8
  %32 = extractvalue { ptr, i32 } %30, 1
  store i32 %32, ptr %4, align 4
  call void @_ZN4absl27CordzSamplingIntervalHelperD2Ev(ptr noundef nonnull align 4 dereferenceable(4) %8) #3
  br label %33

33:                                               ; preds = %29, %25
  call void @_ZN7testing13TestWithParamIN4absl12TestCordSizeEED2Ev(ptr noundef nonnull align 8 dereferenceable(24) %6) #3
  br label %34

34:                                               ; preds = %33
  %35 = load ptr, ptr %3, align 8
  %36 = load i32, ptr %4, align 4
  %37 = insertvalue { ptr, i32 } poison, ptr %35, 0
  %38 = insertvalue { ptr, i32 } %37, i32 %36, 1
  resume { ptr, i32 } %38
}

; Function Attrs: mustprogress uwtable
define internal void @_ZN4absl12_GLOBAL__N_137CordzUpdateTest_AppendLargeArray_TestC2Ev(ptr noundef nonnull align 8 dereferenceable(48) %0) unnamed_addr #4 align 2 {
  %2 = alloca ptr, align 8
  store ptr %0, ptr %2, align 8, !tbaa !952
  %3 = load ptr, ptr %2, align 8
  call void @_ZN4absl12_GLOBAL__N_115CordzUpdateTestC2Ev(ptr noundef nonnull align 8 dereferenceable(48) %3)
  store ptr getelementptr inbounds inrange(-16, 48) ({ [8 x ptr], [4 x ptr] }, ptr @_ZTVN4absl12_GLOBAL__N_137CordzUpdateTest_AppendLargeArray_TestE, i32 0, i32 0, i32 2), ptr %3, align 8, !tbaa !25
  %4 = getelementptr inbounds i8, ptr %3, i64 16
  store ptr getelementptr inbounds inrange(-16, 16) ({ [8 x ptr], [4 x ptr] }, ptr @_ZTVN4absl12_GLOBAL__N_137CordzUpdateTest_AppendLargeArray_TestE, i32 0, i32 1, i32 2), ptr %4, align 8, !tbaa !25
  ret void
}

; Function Attrs: mustprogress nounwind uwtable
define linkonce_odr dso_local void @_ZN7testing18WithParamInterfaceIN4absl12TestCordSizeEE8SetParamEPKS2_(ptr noundef %0) #6 comdat align 2 {
  %2 = alloca ptr, align 8
  store ptr %0, ptr %2, align 8, !tbaa !33
  %3 = load ptr, ptr %2, align 8, !tbaa !33
  store ptr %3, ptr @_ZN7testing18WithParamInterfaceIN4absl12TestCordSizeEE10parameter_E, align 8, !tbaa !33
  ret void
}

; Function Attrs: mustprogress uwtable
define internal noundef ptr @_ZN7testing8internal24ParameterizedTestFactoryIN4absl12_GLOBAL__N_137CordzUpdateTest_AppendLargeArray_TestEE10CreateTestEv(ptr noundef nonnull align 8 dereferenceable(12) %0) unnamed_addr #4 align 2 personality ptr @__gxx_personality_v0 {
  %2 = alloca ptr, align 8
  %3 = alloca ptr, align 8
  %4 = alloca i32, align 4
  store ptr %0, ptr %2, align 8, !tbaa !948
  %5 = load ptr, ptr %2, align 8
  %6 = getelementptr inbounds nuw %"class.testing::internal::ParameterizedTestFactory.246", ptr %5, i32 0, i32 1
  call void @_ZN7testing18WithParamInterfaceIN4absl12TestCordSizeEE8SetParamEPKS2_(ptr noundef %6)
  %7 = call noalias noundef nonnull ptr @_Znwm(i64 noundef 48) #28
  invoke void @_ZN4absl12_GLOBAL__N_137CordzUpdateTest_AppendLargeArray_TestC2Ev(ptr noundef nonnull align 8 dereferenceable(48) %7)
          to label %8 unwind label %9

8:                                                ; preds = %1
  ret ptr %7

9:                                                ; preds = %1
  %10 = landingpad { ptr, i32 }
          cleanup
  %11 = extractvalue { ptr, i32 } %10, 0
  store ptr %11, ptr %3, align 8
  %12 = extractvalue { ptr, i32 } %10, 1
  store i32 %12, ptr %4, align 4
  call void @_ZdlPvm(ptr noundef %7, i64 noundef 48) #29
  br label %13

13:                                               ; preds = %9
  %14 = load ptr, ptr %3, align 8
  %15 = load i32, ptr %4, align 4
  %16 = insertvalue { ptr, i32 } poison, ptr %14, 0
  %17 = insertvalue { ptr, i32 } %16, i32 %15, 1
  resume { ptr, i32 } %17
}